target datalayout = "e-m:e-p270:32:32-p271:32:32-p272:64:64-i64:64-i128:128-f80:128-n8:16:32:64-S128"
target triple = "x86_64-unknown-linux-gnu"

%class.JSONStringValueDeserializer = type <{ %"class.base::ValueDeserializer", %"class.base::BasicStringPiece", i8, [7 x i8] }>
%"class.base::ValueDeserializer" = type { ptr }
%"class.base::BasicStringPiece" = type { ptr, i64 }
%"class.std::unique_ptr" = type { %"struct.std::__uniq_ptr_data" }
%"struct.std::__uniq_ptr_data" = type { %"class.std::__uniq_ptr_impl" }
%"class.std::__uniq_ptr_impl" = type { %"class.std::tuple" }
%"class.std::tuple" = type { %"struct.std::_Tuple_impl" }
%"struct.std::_Tuple_impl" = type { %"struct.std::_Head_base.1" }
%"struct.std::_Head_base.1" = type { ptr }

; Function Attrs: mustprogress uwtable
define dso_local void @_ZN27JSONStringValueDeserializer11DeserializeEPiPNSt7__cxx1112basic_stringIcSt11char_traitsIcESaIcEEE(ptr noalias sret(%"class.std::unique_ptr") align 8 %agg.result, ptr noundef nonnull align 8 dereferenceable(25) %this, ptr noundef %error_code, ptr noundef %error_str) unnamed_addr #3 align 2 {
entry:
  %result.ptr = alloca ptr, align 8
  %this.addr = alloca ptr, align 8
  %error_code.addr = alloca ptr, align 8
  %error_str.addr = alloca ptr, align 8
  store ptr %agg.result, ptr %result.ptr, align 8
  store ptr %this, ptr %this.addr, align 8
  store ptr %error_code, ptr %error_code.addr, align 8
  store ptr %error_str, ptr %error_str.addr, align 8
  %this1 = load ptr, ptr %this.addr, align 8
  %json_string_ = getelementptr inbounds %class.JSONStringValueDeserializer, ptr %this1, i32 0, i32 1
  %allow_trailing_comma_ = getelementptr inbounds %class.JSONStringValueDeserializer, ptr %this1, i32 0, i32 2
  %0 = load i8, ptr %allow_trailing_comma_, align 8
  %tobool = trunc i8 %0 to i1
  %cond = select i1 %tobool, i32 1, i32 0
  %1 = load ptr, ptr %error_code.addr, align 8
  %2 = load ptr, ptr %error_str.addr, align 8
  call void @_ZN4base10JSONReader18ReadAndReturnErrorERKNS_16BasicStringPieceINSt7__cxx1112basic_stringIcSt11char_traitsIcESaIcEEEEEiPiPS7_SB_SB_(ptr sret(%"class.std::unique_ptr") align 8 %agg.result, ptr noundef nonnull align 8 dereferenceable(16) %json_string_, i32 noundef %cond, ptr noundef %1, ptr noundef %2, ptr noundef null, ptr noundef null)
  ret void
}