; Function Attrs: mustprogress uwtable
define dso_local void @_ZN27JSONStringValueDeserializer11DeserializeEPiPNSt7__cxx1112basic_stringIcSt11char_traitsIcESaIcEEE(ptr noalias sret(%"class.std::unique_ptr") align 8 %agg.result, ptr noundef nonnull align 8 dereferenceable(25) %this, ptr noundef %error_code, ptr noundef %error_str) unnamed_addr #4 align 2 {
entry:
  %json_string_ = getelementptr inbounds i8, ptr %this, i64 8
  %allow_trailing_comma_ = getelementptr inbounds i8, ptr %this, i64 24
  %0 = load i8, ptr %allow_trailing_comma_, align 8
  %1 = and i8 %0, 1
  %cond = zext nneg i8 %1 to i32
  tail call void @_ZN4base10JSONReader18ReadAndReturnErrorERKNS_16BasicStringPieceINSt7__cxx1112basic_stringIcSt11char_traitsIcESaIcEEEEEiPiPS7_SB_SB_(ptr sret(%"class.std::unique_ptr") align 8 %agg.result, ptr noundef nonnull align 8 dereferenceable(16) %json_string_, i32 noundef %cond, ptr noundef %error_code, ptr noundef %error_str, ptr noundef null, ptr noundef null)
  ret void
}